target datalayout = "e-m:e-p270:32:32-p271:32:32-p272:64:64-i64:64-i128:128-f80:128-n8:16:32:64-S128"
target triple = "x86_64-pc-linux-gnu"

%struct.Hop_Obj_t_ = type { %union.anon, %union.anon.0, ptr, ptr, i32, i32 }
%union.anon = type { ptr }
%union.anon.0 = type { ptr }
%struct.Vec_Ptr_t_ = type { i32, i32, ptr }
%struct.Hop_Man_t_ = type { ptr, ptr, ptr, ptr, %struct.Hop_Obj_t_, [6 x i32], i32, i32, ptr, i32, ptr, i32, i32, i32, ptr, ptr, ptr, i64, i64 }

; Function Attrs: inlinehint nounwind uwtable
define internal ptr @Vec_PtrEntry(ptr noundef %0, i32 noundef %1) #2 {
  %3 = alloca ptr, align 8
  %4 = alloca i32, align 4
  store ptr %0, ptr %3, align 8, !tbaa !30
  store i32 %1, ptr %4, align 4, !tbaa !8
  %5 = load ptr, ptr %3, align 8, !tbaa !30
  %6 = getelementptr inbounds nuw %struct.Vec_Ptr_t_, ptr %5, i32 0, i32 2
  %7 = load ptr, ptr %6, align 8, !tbaa !34
  %8 = load i32, ptr %4, align 4, !tbaa !8
  %9 = sext i32 %8 to i64
  %10 = getelementptr inbounds ptr, ptr %7, i64 %9
  %11 = load ptr, ptr %10, align 8, !tbaa !36
  ret ptr %11
}

; Function Attrs: inlinehint nounwind uwtable
define internal ptr @Hop_ManPi(ptr noundef %0, i32 noundef %1) #2 {
  %3 = alloca ptr, align 8
  %4 = alloca i32, align 4
  store ptr %0, ptr %3, align 8, !tbaa !28
  store i32 %1, ptr %4, align 4, !tbaa !8
  %5 = load ptr, ptr %3, align 8, !tbaa !28
  %6 = getelementptr inbounds nuw %struct.Hop_Man_t_, ptr %5, i32 0, i32 0
  %7 = load ptr, ptr %6, align 8, !tbaa !42
  %8 = load i32, ptr %4, align 4, !tbaa !8
  %9 = call ptr @Vec_PtrEntry(ptr noundef %7, i32 noundef %8)
  ret ptr %9
}

; Function Attrs: inlinehint nounwind uwtable
define internal i32 @Hop_IsComplement(ptr noundef %0) #2 {
  %2 = alloca ptr, align 8
  store ptr %0, ptr %2, align 8, !tbaa !3
  %3 = load ptr, ptr %2, align 8, !tbaa !3
  %4 = ptrtoint ptr %3 to i64
  %5 = and i64 %4, 1
  %6 = trunc i64 %5 to i32
  ret i32 %6
}

; Function Attrs: inlinehint nounwind uwtable
define internal i32 @Hop_ObjIsConst1(ptr noundef %0) #2 {
  %2 = alloca ptr, align 8
  store ptr %0, ptr %2, align 8, !tbaa !3
  %3 = load ptr, ptr %2, align 8, !tbaa !3
  %4 = getelementptr inbounds nuw %struct.Hop_Obj_t_, ptr %3, i32 0, i32 4
  %5 = load i32, ptr %4, align 8
  %6 = and i32 %5, 7
  %7 = icmp eq i32 %6, 1
  %8 = zext i1 %7 to i32
  ret i32 %8
}

; Function Attrs: inlinehint nounwind uwtable
define internal ptr @Hop_Regular(ptr noundef %0) #2 {
  %2 = alloca ptr, align 8
  store ptr %0, ptr %2, align 8, !tbaa !3
  %3 = load ptr, ptr %2, align 8, !tbaa !3
  %4 = ptrtoint ptr %3 to i64
  %5 = and i64 %4, -2
  %6 = inttoptr i64 %5 to ptr
  ret ptr %6
}

; Function Attrs: nounwind uwtable
define i64 @Hop_ManComputeTruth6(ptr noundef %0, ptr noundef %1, i32 noundef %2) #0 {
  %4 = alloca i64, align 8
  %5 = alloca ptr, align 8
  %6 = alloca ptr, align 8
  %7 = alloca i32, align 4
  %8 = alloca i64, align 8
  %9 = alloca i32, align 4
  %10 = alloca i32, align 4
  store ptr %0, ptr %5, align 8, !tbaa !28
  store ptr %1, ptr %6, align 8, !tbaa !3
  store i32 %2, ptr %7, align 4, !tbaa !8
  call void @llvm.lifetime.start.p0(i64 8, ptr %8) #7
  call void @llvm.lifetime.start.p0(i64 4, ptr %9) #7
  %11 = load ptr, ptr %6, align 8, !tbaa !3
  %12 = call ptr @Hop_Regular(ptr noundef %11)
  %13 = call i32 @Hop_ObjIsConst1(ptr noundef %12)
  %14 = icmp ne i32 %13, 0
  br i1 %14, label %15, label %20

15:                                               ; preds = %3
  %16 = load ptr, ptr %6, align 8, !tbaa !3
  %17 = call i32 @Hop_IsComplement(ptr noundef %16)
  %18 = icmp ne i32 %17, 0
  %19 = select i1 %18, i64 0, i64 -1
  store i64 %19, ptr %4, align 8
  store i32 1, ptr %10, align 4
  br label %49

20:                                               ; preds = %3
  store i32 0, ptr %9, align 4, !tbaa !8
  br label %21

21:                                               ; preds = %31, %20
  %22 = load i32, ptr %9, align 4, !tbaa !8
  %23 = load i32, ptr %7, align 4, !tbaa !8
  %24 = icmp slt i32 %22, %23
  br i1 %24, label %25, label %34

25:                                               ; preds = %21
  %26 = load i32, ptr %9, align 4, !tbaa !8
  %27 = load ptr, ptr %5, align 8, !tbaa !28
  %28 = load i32, ptr %9, align 4, !tbaa !8
  %29 = call ptr @Hop_ManPi(ptr noundef %27, i32 noundef %28)
  %30 = getelementptr inbounds nuw %struct.Hop_Obj_t_, ptr %29, i32 0, i32 0
  store i32 %26, ptr %30, align 8, !tbaa !15
  br label %31

31:                                               ; preds = %25
  %32 = load i32, ptr %9, align 4, !tbaa !8
  %33 = add nsw i32 %32, 1
  store i32 %33, ptr %9, align 4, !tbaa !8
  br label %21, !llvm.loop !49

34:                                               ; preds = %21
  %35 = load ptr, ptr %5, align 8, !tbaa !28
  %36 = load ptr, ptr %6, align 8, !tbaa !3
  %37 = call ptr @Hop_Regular(ptr noundef %36)
  %38 = call i64 @Hop_ManComputeTruth6_rec(ptr noundef %35, ptr noundef %37)
  store i64 %38, ptr %8, align 8, !tbaa !48
  %39 = load ptr, ptr %6, align 8, !tbaa !3
  %40 = call i32 @Hop_IsComplement(ptr noundef %39)
  %41 = icmp ne i32 %40, 0
  br i1 %41, label %42, label %45

42:                                               ; preds = %34
  %43 = load i64, ptr %8, align 8, !tbaa !48
  %44 = xor i64 %43, -1
  br label %47

45:                                               ; preds = %34
  %46 = load i64, ptr %8, align 8, !tbaa !48
  br label %47

47:                                               ; preds = %45, %42
  %48 = phi i64 [ %44, %42 ], [ %46, %45 ]
  store i64 %48, ptr %4, align 8
  store i32 1, ptr %10, align 4
  br label %49

49:                                               ; preds = %47, %15
  call void @llvm.lifetime.end.p0(i64 4, ptr %9) #7
  call void @llvm.lifetime.end.p0(i64 8, ptr %8) #7
  %50 = load i64, ptr %4, align 8
  ret i64 %50
}