; Function Attrs: nofree nosync nounwind memory(readwrite, inaccessiblemem: none) uwtable
define i64 @Hop_ManComputeTruth6(ptr noundef %0, ptr noundef %1, i32 noundef %2) local_unnamed_addr #0 {
  %4 = ptrtoint ptr %1 to i64
  %5 = and i64 %4, -2
  %6 = inttoptr i64 %5 to ptr
  %7 = getelementptr i8, ptr %6, i64 32
  %.val = load i32, ptr %7, align 8
  %8 = and i32 %.val, 7
  %.not = icmp eq i32 %8, 1
  br i1 %.not, label %10, label %.preheader

.preheader:                                       ; preds = %3
  %9 = icmp sgt i32 %2, 0
  br i1 %9, label %.lr.ph.preheader, label %._crit_edge

.lr.ph.preheader:                                 ; preds = %.preheader
  %wide.trip.count = zext nneg i32 %2 to i64
  br label %.lr.ph

10:                                               ; preds = %3
  %11 = and i64 %4, 1
  %sext16 = add nsw i64 %11, -1
  br label %19

.lr.ph:                                           ; preds = %.lr.ph.preheader, %.lr.ph
  %indvars.iv = phi i64 [ 0, %.lr.ph.preheader ], [ %indvars.iv.next, %.lr.ph ]
  %.val17 = load ptr, ptr %0, align 8, !tbaa !33
  %12 = getelementptr i8, ptr %.val17, i64 8
  %.val17.val = load ptr, ptr %12, align 8, !tbaa !29
  %13 = getelementptr inbounds nuw ptr, ptr %.val17.val, i64 %indvars.iv
  %14 = load ptr, ptr %13, align 8, !tbaa !24
  %15 = trunc nuw nsw i64 %indvars.iv to i32
  store i32 %15, ptr %14, align 8, !tbaa !11
  %indvars.iv.next = add nuw nsw i64 %indvars.iv, 1
  %exitcond.not = icmp eq i64 %indvars.iv.next, %wide.trip.count
  br i1 %exitcond.not, label %._crit_edge, label %.lr.ph, !llvm.loop !43

._crit_edge:                                      ; preds = %.lr.ph, %.preheader
  %16 = tail call i64 @Hop_ManComputeTruth6_rec(ptr noundef %0, ptr noundef %6)
  %17 = and i64 %4, 1
  %sext = sub nsw i64 0, %17
  %18 = xor i64 %16, %sext
  br label %19

19:                                               ; preds = %._crit_edge, %10
  %.013 = phi i64 [ %sext16, %10 ], [ %18, %._crit_edge ]
  ret i64 %.013
}